; Function Attrs: nounwind sspstrong uwtable
define internal void @ivshmem_doorbell_realize(ptr noundef %dev, ptr noundef %errp) #0 {
entry:
  %call.i = tail call ptr @object_dynamic_cast_assert(ptr noundef %dev, ptr noundef nonnull @.str, ptr noundef nonnull @.str.7, i32 noundef 63, ptr noundef nonnull @__func__.IVSHMEM_COMMON) #11
  %server_chr = getelementptr inbounds nuw i8, ptr %call.i, i64 2624
  %call1 = tail call zeroext i1 @qemu_chr_fe_backend_connected(ptr noundef nonnull %server_chr) #11
  br i1 %call1, label %if.end, label %if.then

if.then:                                          ; preds = %entry
  tail call void (ptr, ptr, i32, ptr, ptr, ...) @error_setg_internal(ptr noundef %errp, ptr noundef nonnull @.str.7, i32 noundef 1102, ptr noundef nonnull @__func__.ivshmem_doorbell_realize, ptr noundef nonnull @.str.50) #11
  br label %return

if.end:                                           ; preds = %entry
  tail call void @ivshmem_common_realize(ptr noundef %dev, ptr noundef %errp)
  br label %return

return:                                           ; preds = %if.end, %if.then
  ret void
}